target datalayout = "e-m:e-p270:32:32-p271:32:32-p272:64:64-i64:64-i128:128-f80:128-n8:16:32:64-S128"
target triple = "x86_64-pc-linux-gnu"

%struct.KeyShareEntry = type { i16, ptr, i32, ptr, i32, ptr, i32, ptr, i32, ptr }

; Function Attrs: nounwind uwtable
define internal void @TLSX_KeyShare_FreeAll(ptr noundef %0, ptr noundef %1) #0 {
  %3 = alloca ptr, align 8
  %4 = alloca ptr, align 8
  %5 = alloca ptr, align 8
  %6 = alloca ptr, align 8
  %7 = alloca ptr, align 8
  %8 = alloca ptr, align 8
  %9 = alloca ptr, align 8
  %10 = alloca ptr, align 8
  store ptr %0, ptr %3, align 8, !tbaa !178
  store ptr %1, ptr %4, align 8, !tbaa !54
  call void @llvm.lifetime.start.p0(i64 8, ptr %5) #8
  br label %11

11:                                               ; preds = %108, %2
  %12 = load ptr, ptr %3, align 8, !tbaa !178
  store ptr %12, ptr %5, align 8, !tbaa !178
  %13 = icmp ne ptr %12, null
  br i1 %13, label %14, label %109

14:                                               ; preds = %11
  %15 = load ptr, ptr %5, align 8, !tbaa !178
  %16 = getelementptr inbounds nuw %struct.KeyShareEntry, ptr %15, i32 0, i32 9
  %17 = load ptr, ptr %16, align 8, !tbaa !196
  store ptr %17, ptr %3, align 8, !tbaa !178
  %18 = load ptr, ptr %5, align 8, !tbaa !178
  %19 = getelementptr inbounds nuw %struct.KeyShareEntry, ptr %18, i32 0, i32 0
  %20 = load i16, ptr %19, align 8, !tbaa !180
  %21 = zext i16 %20 to i32
  %22 = icmp sle i32 256, %21
  br i1 %22, label %23, label %34

23:                                               ; preds = %14
  %24 = load ptr, ptr %5, align 8, !tbaa !178
  %25 = getelementptr inbounds nuw %struct.KeyShareEntry, ptr %24, i32 0, i32 0
  %26 = load i16, ptr %25, align 8, !tbaa !180
  %27 = zext i16 %26 to i32
  %28 = icmp sle i32 %27, 511
  br i1 %28, label %29, label %34

29:                                               ; preds = %23
  %30 = load ptr, ptr %5, align 8, !tbaa !178
  %31 = getelementptr inbounds nuw %struct.KeyShareEntry, ptr %30, i32 0, i32 3
  %32 = load ptr, ptr %31, align 8, !tbaa !182
  %33 = call i32 @wc_FreeDhKey(ptr noundef %32)
  br label %55

34:                                               ; preds = %23, %14
  %35 = load ptr, ptr %5, align 8, !tbaa !178
  %36 = getelementptr inbounds nuw %struct.KeyShareEntry, ptr %35, i32 0, i32 0
  %37 = load i16, ptr %36, align 8, !tbaa !180
  %38 = zext i16 %37 to i32
  %39 = icmp eq i32 %38, 29
  br i1 %39, label %40, label %41

40:                                               ; preds = %34
  br label %54

41:                                               ; preds = %34
  %42 = load ptr, ptr %5, align 8, !tbaa !178
  %43 = getelementptr inbounds nuw %struct.KeyShareEntry, ptr %42, i32 0, i32 0
  %44 = load i16, ptr %43, align 8, !tbaa !180
  %45 = zext i16 %44 to i32
  %46 = icmp eq i32 %45, 30
  br i1 %46, label %47, label %48

47:                                               ; preds = %41
  br label %53

48:                                               ; preds = %41
  %49 = load ptr, ptr %5, align 8, !tbaa !178
  %50 = getelementptr inbounds nuw %struct.KeyShareEntry, ptr %49, i32 0, i32 3
  %51 = load ptr, ptr %50, align 8, !tbaa !182
  %52 = call i32 @wc_ecc_free(ptr noundef %51)
  br label %53

53:                                               ; preds = %48, %47
  br label %54

54:                                               ; preds = %53, %40
  br label %55

55:                                               ; preds = %54, %29
  br label %56

56:                                               ; preds = %55
  call void @llvm.lifetime.start.p0(i64 8, ptr %6) #8
  %57 = load ptr, ptr %5, align 8, !tbaa !178
  %58 = getelementptr inbounds nuw %struct.KeyShareEntry, ptr %57, i32 0, i32 3
  %59 = load ptr, ptr %58, align 8, !tbaa !182
  store ptr %59, ptr %6, align 8, !tbaa !54
  %60 = load ptr, ptr %6, align 8, !tbaa !54
  %61 = icmp ne ptr %60, null
  br i1 %61, label %62, label %64

62:                                               ; preds = %56
  %63 = load ptr, ptr %6, align 8, !tbaa !54
  call void @wolfSSL_Free(ptr noundef %63)
  br label %64

64:                                               ; preds = %62, %56
  call void @llvm.lifetime.end.p0(i64 8, ptr %6) #8
  br label %65

65:                                               ; preds = %64
  br label %66

66:                                               ; preds = %65
  br label %67

67:                                               ; preds = %66
  call void @llvm.lifetime.start.p0(i64 8, ptr %7) #8
  %68 = load ptr, ptr %5, align 8, !tbaa !178
  %69 = getelementptr inbounds nuw %struct.KeyShareEntry, ptr %68, i32 0, i32 7
  %70 = load ptr, ptr %69, align 8, !tbaa !185
  store ptr %70, ptr %7, align 8, !tbaa !54
  %71 = load ptr, ptr %7, align 8, !tbaa !54
  %72 = icmp ne ptr %71, null
  br i1 %72, label %73, label %75

73:                                               ; preds = %67
  %74 = load ptr, ptr %7, align 8, !tbaa !54
  call void @wolfSSL_Free(ptr noundef %74)
  br label %75

75:                                               ; preds = %73, %67
  call void @llvm.lifetime.end.p0(i64 8, ptr %7) #8
  br label %76

76:                                               ; preds = %75
  br label %77

77:                                               ; preds = %76
  br label %78

78:                                               ; preds = %77
  call void @llvm.lifetime.start.p0(i64 8, ptr %8) #8
  %79 = load ptr, ptr %5, align 8, !tbaa !178
  %80 = getelementptr inbounds nuw %struct.KeyShareEntry, ptr %79, i32 0, i32 5
  %81 = load ptr, ptr %80, align 8, !tbaa !184
  store ptr %81, ptr %8, align 8, !tbaa !54
  %82 = load ptr, ptr %8, align 8, !tbaa !54
  %83 = icmp ne ptr %82, null
  br i1 %83, label %84, label %86

84:                                               ; preds = %78
  %85 = load ptr, ptr %8, align 8, !tbaa !54
  call void @wolfSSL_Free(ptr noundef %85)
  br label %86

86:                                               ; preds = %84, %78
  call void @llvm.lifetime.end.p0(i64 8, ptr %8) #8
  br label %87

87:                                               ; preds = %86
  br label %88

88:                                               ; preds = %87
  br label %89

89:                                               ; preds = %88
  call void @llvm.lifetime.start.p0(i64 8, ptr %9) #8
  %90 = load ptr, ptr %5, align 8, !tbaa !178
  %91 = getelementptr inbounds nuw %struct.KeyShareEntry, ptr %90, i32 0, i32 1
  %92 = load ptr, ptr %91, align 8, !tbaa !199
  store ptr %92, ptr %9, align 8, !tbaa !54
  %93 = load ptr, ptr %9, align 8, !tbaa !54
  %94 = icmp ne ptr %93, null
  br i1 %94, label %95, label %97

95:                                               ; preds = %89
  %96 = load ptr, ptr %9, align 8, !tbaa !54
  call void @wolfSSL_Free(ptr noundef %96)
  br label %97

97:                                               ; preds = %95, %89
  call void @llvm.lifetime.end.p0(i64 8, ptr %9) #8
  br label %98

98:                                               ; preds = %97
  br label %99

99:                                               ; preds = %98
  br label %100

100:                                              ; preds = %99
  call void @llvm.lifetime.start.p0(i64 8, ptr %10) #8
  %101 = load ptr, ptr %5, align 8, !tbaa !178
  store ptr %101, ptr %10, align 8, !tbaa !54
  %102 = load ptr, ptr %10, align 8, !tbaa !54
  %103 = icmp ne ptr %102, null
  br i1 %103, label %104, label %106

104:                                              ; preds = %100
  %105 = load ptr, ptr %10, align 8, !tbaa !54
  call void @wolfSSL_Free(ptr noundef %105)
  br label %106

106:                                              ; preds = %104, %100
  call void @llvm.lifetime.end.p0(i64 8, ptr %10) #8
  br label %107

107:                                              ; preds = %106
  br label %108

108:                                              ; preds = %107
  br label %11, !llvm.loop !202

109:                                              ; preds = %11
  call void @llvm.lifetime.end.p0(i64 8, ptr %5) #8
  ret void
}