; Function Attrs: nounwind uwtable
define internal fastcc void @TLSX_KeyShare_FreeAll(ptr noundef %0) unnamed_addr #0 {
  %.not1 = icmp eq ptr %0, null
  br i1 %.not1, label %._crit_edge, label %.lr.ph

.lr.ph:                                           ; preds = %1, %31
  %.02 = phi ptr [ %3, %31 ], [ %0, %1 ]
  %2 = getelementptr inbounds nuw i8, ptr %.02, i64 72
  %3 = load ptr, ptr %2, align 8, !tbaa !176
  %4 = load i16, ptr %.02, align 8, !tbaa !148
  %5 = and i16 %4, -256
  %or.cond = icmp eq i16 %5, 256
  br i1 %or.cond, label %6, label %10

6:                                                ; preds = %.lr.ph
  %7 = getelementptr inbounds nuw i8, ptr %.02, i64 24
  %8 = load ptr, ptr %7, align 8, !tbaa !151
  %9 = tail call i32 @wc_FreeDhKey(ptr noundef %8) #17
  br label %15

10:                                               ; preds = %.lr.ph
  %.off = add i16 %4, -29
  %switch = icmp ult i16 %.off, 2
  br i1 %switch, label %15, label %11

11:                                               ; preds = %10
  %12 = getelementptr inbounds nuw i8, ptr %.02, i64 24
  %13 = load ptr, ptr %12, align 8, !tbaa !151
  %14 = tail call i32 @wc_ecc_free(ptr noundef %13) #17
  br label %15

15:                                               ; preds = %10, %6, %11
  %16 = getelementptr inbounds nuw i8, ptr %.02, i64 24
  %17 = load ptr, ptr %16, align 8, !tbaa !151
  %.not29 = icmp eq ptr %17, null
  br i1 %.not29, label %19, label %18

18:                                               ; preds = %15
  tail call void @wolfSSL_Free(ptr noundef nonnull %17) #17
  br label %19

19:                                               ; preds = %18, %15
  %20 = getelementptr inbounds nuw i8, ptr %.02, i64 56
  %21 = load ptr, ptr %20, align 8, !tbaa !153
  %.not30 = icmp eq ptr %21, null
  br i1 %.not30, label %23, label %22

22:                                               ; preds = %19
  tail call void @wolfSSL_Free(ptr noundef nonnull %21) #17
  br label %23

23:                                               ; preds = %22, %19
  %24 = getelementptr inbounds nuw i8, ptr %.02, i64 40
  %25 = load ptr, ptr %24, align 8, !tbaa !152
  %.not31 = icmp eq ptr %25, null
  br i1 %.not31, label %27, label %26

26:                                               ; preds = %23
  tail call void @wolfSSL_Free(ptr noundef nonnull %25) #17
  br label %27

27:                                               ; preds = %26, %23
  %28 = getelementptr inbounds nuw i8, ptr %.02, i64 8
  %29 = load ptr, ptr %28, align 8, !tbaa !164
  %.not32 = icmp eq ptr %29, null
  br i1 %.not32, label %31, label %30

30:                                               ; preds = %27
  tail call void @wolfSSL_Free(ptr noundef nonnull %29) #17
  br label %31

31:                                               ; preds = %27, %30
  tail call void @wolfSSL_Free(ptr noundef nonnull %.02) #17
  %.not = icmp eq ptr %3, null
  br i1 %.not, label %._crit_edge, label %.lr.ph, !llvm.loop !177

._crit_edge:                                      ; preds = %31, %1
  ret void
}